; Function Attrs: nounwind uwtable
define ptr @initialize_Std_Tactic_BVDecide_LRAT_Internal_LRATChecker(i8 noundef zeroext %0, ptr noundef readnone captures(none) %1) local_unnamed_addr #1 {
  %.b8 = load i1, ptr @_G_initialized, align 1
  br i1 %.b8, label %3, label %7

3:                                                ; preds = %2
  tail call void @lean_inc_heartbeat() #5
  %4 = tail call noalias ptr @mi_malloc_small(i64 noundef 24) #5
  %5 = icmp eq ptr %4, null
  br i1 %5, label %6, label %.sink.split

6:                                                ; preds = %3
  tail call void @lean_internal_panic_out_of_memory() #6
  unreachable

7:                                                ; preds = %2
  store i1 true, ptr @_G_initialized, align 1
  %8 = tail call ptr @initialize_Std_Tactic_BVDecide_LRAT_Actions(i8 noundef zeroext %0, ptr noundef nonnull inttoptr (i64 1 to ptr)) #5
  %9 = getelementptr i8, ptr %8, i64 4
  %.val = load i32, ptr %9, align 4
  %.mask.i = and i32 %.val, -16777216
  %10 = icmp eq i32 %.mask.i, 16777216
  br i1 %10, label %44, label %11

11:                                               ; preds = %7
  %12 = load i32, ptr %8, align 4, !tbaa !4
  %13 = icmp sgt i32 %12, 1
  br i1 %13, label %14, label %16, !prof !9

14:                                               ; preds = %11
  %15 = add nsw i32 %12, -1
  store i32 %15, ptr %8, align 4, !tbaa !4
  br label %lean_dec_ref.exit

16:                                               ; preds = %11
  %.not.i = icmp eq i32 %12, 0
  br i1 %.not.i, label %lean_dec_ref.exit, label %17

17:                                               ; preds = %16
  tail call void @lean_dec_ref_cold(ptr noundef nonnull %8) #5
  br label %lean_dec_ref.exit

lean_dec_ref.exit:                                ; preds = %14, %16, %17
  %18 = tail call ptr @initialize_Std_Tactic_BVDecide_LRAT_Internal_Formula_Class(i8 noundef zeroext %0, ptr noundef nonnull inttoptr (i64 1 to ptr)) #5
  %19 = getelementptr i8, ptr %18, i64 4
  %.val11 = load i32, ptr %19, align 4
  %.mask.i12 = and i32 %.val11, -16777216
  %20 = icmp eq i32 %.mask.i12, 16777216
  br i1 %20, label %44, label %21

21:                                               ; preds = %lean_dec_ref.exit
  %22 = load i32, ptr %18, align 4, !tbaa !4
  %23 = icmp sgt i32 %22, 1
  br i1 %23, label %24, label %26, !prof !9

24:                                               ; preds = %21
  %25 = add nsw i32 %22, -1
  store i32 %25, ptr %18, align 4, !tbaa !4
  br label %lean_dec_ref.exit10

26:                                               ; preds = %21
  %.not.i9 = icmp eq i32 %22, 0
  br i1 %.not.i9, label %lean_dec_ref.exit10, label %27

27:                                               ; preds = %26
  tail call void @lean_dec_ref_cold(ptr noundef nonnull %18) #5
  br label %lean_dec_ref.exit10

lean_dec_ref.exit10:                              ; preds = %24, %26, %27
  tail call void @lean_inc_heartbeat() #5
  %28 = tail call noalias ptr @mi_malloc_small(i64 noundef 24) #5
  %29 = icmp eq ptr %28, null
  br i1 %29, label %30, label %_init_l_Std_Tactic_BVDecide_LRAT_Internal_Result_noConfusion___rarg___closed__1.exit

30:                                               ; preds = %lean_dec_ref.exit10
  tail call void @lean_internal_panic_out_of_memory() #6
  unreachable

_init_l_Std_Tactic_BVDecide_LRAT_Internal_Result_noConfusion___rarg___closed__1.exit: ; preds = %lean_dec_ref.exit10
  %31 = getelementptr inbounds nuw i8, ptr %28, i64 4
  store i32 1, ptr %28, align 4, !tbaa !4
  store i32 -184549352, ptr %31, align 4
  %32 = getelementptr inbounds nuw i8, ptr %28, i64 8
  store ptr @l_Std_Tactic_BVDecide_LRAT_Internal_Result_noConfusion___rarg___lambda__1___boxed, ptr %32, align 8, !tbaa !10
  %33 = getelementptr inbounds nuw i8, ptr %28, i64 16
  store i16 1, ptr %33, align 8, !tbaa !12
  %34 = getelementptr inbounds nuw i8, ptr %28, i64 18
  store i16 0, ptr %34, align 2, !tbaa !12
  store ptr %28, ptr @l_Std_Tactic_BVDecide_LRAT_Internal_Result_noConfusion___rarg___closed__1, align 8, !tbaa !10
  tail call void @lean_mark_persistent(ptr noundef nonnull %28) #5
  store i8 0, ptr @l_Std_Tactic_BVDecide_LRAT_Internal_instInhabitedResult, align 1, !tbaa !16
  %35 = tail call ptr @lean_mk_string_unchecked(ptr noundef nonnull @.str, i64 noundef 7, i64 noundef 7) #5
  store ptr %35, ptr @l_Std_Tactic_BVDecide_LRAT_Internal_instToStringResult___closed__1, align 8, !tbaa !10
  tail call void @lean_mark_persistent(ptr noundef %35) #5
  %36 = tail call ptr @lean_mk_string_unchecked(ptr noundef nonnull @.str.1, i64 noundef 12, i64 noundef 12) #5
  store ptr %36, ptr @l_Std_Tactic_BVDecide_LRAT_Internal_instToStringResult___closed__2, align 8, !tbaa !10
  tail call void @lean_mark_persistent(ptr noundef %36) #5
  %37 = tail call ptr @lean_mk_string_unchecked(ptr noundef nonnull @.str.2, i64 noundef 11, i64 noundef 11) #5
  store ptr %37, ptr @l_Std_Tactic_BVDecide_LRAT_Internal_instToStringResult___closed__3, align 8, !tbaa !10
  tail call void @lean_mark_persistent(ptr noundef %37) #5
  tail call void @lean_inc_heartbeat() #5
  %38 = tail call noalias ptr @mi_malloc_small(i64 noundef 24) #5
  %39 = icmp eq ptr %38, null
  br i1 %39, label %40, label %.sink.split

40:                                               ; preds = %_init_l_Std_Tactic_BVDecide_LRAT_Internal_Result_noConfusion___rarg___closed__1.exit
  tail call void @lean_internal_panic_out_of_memory() #6
  unreachable

.sink.split:                                      ; preds = %_init_l_Std_Tactic_BVDecide_LRAT_Internal_Result_noConfusion___rarg___closed__1.exit, %3
  %.sink17 = phi ptr [ %4, %3 ], [ %38, %_init_l_Std_Tactic_BVDecide_LRAT_Internal_Result_noConfusion___rarg___closed__1.exit ]
  %41 = getelementptr inbounds nuw i8, ptr %.sink17, i64 4
  store i32 1, ptr %.sink17, align 4, !tbaa !4
  store i32 131096, ptr %41, align 4
  %42 = getelementptr inbounds nuw i8, ptr %.sink17, i64 8
  store ptr inttoptr (i64 1 to ptr), ptr %42, align 8, !tbaa !10
  %43 = getelementptr inbounds nuw i8, ptr %.sink17, i64 16
  store ptr inttoptr (i64 1 to ptr), ptr %43, align 8, !tbaa !10
  br label %44

44:                                               ; preds = %.sink.split, %lean_dec_ref.exit, %7
  %.0 = phi ptr [ %8, %7 ], [ %18, %lean_dec_ref.exit ], [ %.sink17, %.sink.split ]
  ret ptr %.0
}